; Function Attrs: nounwind sspstrong uwtable
define internal void @block_dirty_bitmap_disable_abort(ptr noundef readonly captures(none) %0) #0 {
  %2 = getelementptr inbounds nuw i8, ptr %0, i64 24
  %3 = load i8, ptr %2, align 8, !range !6, !noundef !7
  %4 = trunc nuw i8 %3 to i1
  br i1 %4, label %5, label %7

5:                                                ; preds = %1
  %6 = load ptr, ptr %0, align 8
  tail call void @bdrv_enable_dirty_bitmap(ptr noundef %6) #14
  br label %7

7:                                                ; preds = %5, %1
  ret void
}